; Function Attrs: nofree norecurse nosync nounwind memory(argmem: readwrite) uwtable
define void @x2rgb10to64_bswap(ptr noundef readonly captures(none) %0, ptr noundef writeonly captures(none) %1, i32 noundef %2) local_unnamed_addr #0 {
  %4 = ashr i32 %2, 2
  %5 = icmp sgt i32 %4, 0
  br i1 %5, label %.lr.ph.preheader, label %._crit_edge

.lr.ph.preheader:                                 ; preds = %3
  %wide.trip.count = zext nneg i32 %4 to i64
  br label %.lr.ph

.lr.ph:                                           ; preds = %.lr.ph.preheader, %.lr.ph
  %indvars.iv = phi i64 [ 0, %.lr.ph.preheader ], [ %indvars.iv.next, %.lr.ph ]
  %6 = getelementptr inbounds nuw i32, ptr %0, i64 %indvars.iv
  %7 = load i32, ptr %6, align 1, !tbaa !8
  %8 = lshr i32 %7, 14
  %9 = and i32 %8, 65472
  %10 = lshr i32 %7, 24
  %11 = and i32 %10, 63
  %12 = or disjoint i32 %9, %11
  %13 = trunc nuw i32 %12 to i16
  %14 = tail call i16 @llvm.bswap.i16(i16 %13)
  %.idx = shl nsw i64 %indvars.iv, 3
  %15 = getelementptr inbounds nuw i8, ptr %1, i64 %.idx
  store i16 %14, ptr %15, align 2, !tbaa !16
  %16 = lshr i32 %7, 4
  %17 = and i32 %16, 65472
  %18 = and i32 %8, 63
  %19 = or disjoint i32 %17, %18
  %20 = trunc nuw i32 %19 to i16
  %21 = tail call i16 @llvm.bswap.i16(i16 %20)
  %22 = getelementptr inbounds nuw i8, ptr %15, i64 2
  store i16 %21, ptr %22, align 2, !tbaa !16
  %23 = and i32 %7, 1023
  %24 = shl nuw nsw i32 %23, 6
  %25 = lshr i32 %23, 4
  %26 = or disjoint i32 %24, %25
  %27 = trunc nuw i32 %26 to i16
  %28 = tail call i16 @llvm.bswap.i16(i16 %27)
  %29 = getelementptr inbounds nuw i8, ptr %15, i64 4
  store i16 %28, ptr %29, align 2, !tbaa !16
  %30 = getelementptr inbounds nuw i8, ptr %15, i64 6
  store i16 -1, ptr %30, align 2, !tbaa !16
  %indvars.iv.next = add nuw nsw i64 %indvars.iv, 1
  %exitcond.not = icmp eq i64 %indvars.iv.next, %wide.trip.count
  br i1 %exitcond.not, label %._crit_edge, label %.lr.ph, !llvm.loop !41

._crit_edge:                                      ; preds = %.lr.ph, %3
  ret void
}